; ModuleID = 'source-C-CXX/29/1706.cpp'
source_filename = "source-C-CXX/29/1706.cpp"
target datalayout = "e-m:e-p270:32:32-p271:32:32-p272:64:64-i64:64-f80:128-n8:16:32:64-S128"
target triple = "x86_64-pc-linux-gnu"

%"class.std::ios_base::Init" = type { i8 }
%"class.std::basic_istream" = type { i32 (...)**, i64, %"class.std::basic_ios" }
%"class.std::basic_ios" = type { %"class.std::ios_base", %"class.std::basic_ostream"*, i8, i8, %"class.std::basic_streambuf"*, %"class.std::ctype"*, %"class.std::num_put"*, %"class.std::num_get"* }
%"class.std::ios_base" = type { i32 (...)**, i64, i64, i32, i32, i32, %"struct.std::ios_base::_Callback_list"*, %"struct.std::ios_base::_Words", [8 x %"struct.std::ios_base::_Words"], i32, %"struct.std::ios_base::_Words"*, %"class.std::locale" }
%"struct.std::ios_base::_Callback_list" = type { %"struct.std::ios_base::_Callback_list"*, void (i32, %"class.std::ios_base"*, i32)*, i32, i32 }
%"struct.std::ios_base::_Words" = type { i8*, i64 }
%"class.std::locale" = type { %"class.std::locale::_Impl"* }
%"class.std::locale::_Impl" = type { i32, %"class.std::locale::facet"**, i64, %"class.std::locale::facet"**, i8** }
%"class.std::locale::facet" = type <{ i32 (...)**, i32, [4 x i8] }>
%"class.std::basic_ostream" = type { i32 (...)**, %"class.std::basic_ios" }
%"class.std::basic_streambuf" = type { i32 (...)**, i8*, i8*, i8*, i8*, i8*, i8*, %"class.std::locale" }
%"class.std::ctype" = type <{ %"class.std::locale::facet.base", [4 x i8], %struct.__locale_struct*, i8, [7 x i8], i32*, i32*, i16*, i8, [256 x i8], [256 x i8], i8, [6 x i8] }>
%"class.std::locale::facet.base" = type <{ i32 (...)**, i32 }>
%struct.__locale_struct = type { [13 x %struct.__locale_data*], i16*, i32*, i32*, [13 x i8*] }
%struct.__locale_data = type opaque
%"class.std::num_put" = type { %"class.std::locale::facet.base", [4 x i8] }
%"class.std::num_get" = type { %"class.std::locale::facet.base", [4 x i8] }

@_ZStL8__ioinit = internal global %"class.std::ios_base::Init" zeroinitializer, align 1
@__dso_handle = external hidden global i8
@_ZSt3cin = external global %"class.std::basic_istream", align 8
@_ZSt4cout = external global %"class.std::basic_ostream", align 8
@llvm.global_ctors = appending global [1 x { i32, void ()*, i8* }] [{ i32, void ()*, i8* } { i32 65535, void ()* @_GLOBAL__sub_I_1706.cpp, i8* null }]

declare void @_ZNSt8ios_base4InitC1Ev(%"class.std::ios_base::Init"* nonnull align 1 dereferenceable(1)) unnamed_addr #0

; Function Attrs: nounwind
declare void @_ZNSt8ios_base4InitD1Ev(%"class.std::ios_base::Init"* nonnull align 1 dereferenceable(1)) unnamed_addr #1

; Function Attrs: nofree nounwind
declare i32 @__cxa_atexit(void (i8*)*, i8*, i8*) local_unnamed_addr #2

; Function Attrs: mustprogress norecurse sspstrong uwtable
define dso_local i32 @main() local_unnamed_addr #3 {
  %1 = alloca i32, align 4
  %2 = alloca [4 x i32], align 16
  %3 = bitcast i32* %1 to i8*
  call void @llvm.lifetime.start.p0i8(i64 4, i8* nonnull %3) #8
  %4 = bitcast [4 x i32]* %2 to i8*
  call void @llvm.lifetime.start.p0i8(i64 16, i8* nonnull %4) #8
  call void @llvm.memset.p0i8.i64(i8* noundef nonnull align 16 dereferenceable(16) %4, i8 0, i64 16, i1 false)
  %5 = call nonnull align 8 dereferenceable(16) %"class.std::basic_istream"* @_ZNSirsERi(%"class.std::basic_istream"* nonnull align 8 dereferenceable(16) @_ZSt3cin, i32* nonnull align 4 dereferenceable(4) %1)
  %6 = load i32, i32* %1, align 4, !tbaa !5
  %7 = getelementptr inbounds [4 x i32], [4 x i32]* %2, i64 0, i64 3
  %8 = getelementptr inbounds [4 x i32], [4 x i32]* %2, i64 0, i64 0
  %9 = getelementptr inbounds [4 x i32], [4 x i32]* %2, i64 0, i64 1
  %10 = getelementptr inbounds [4 x i32], [4 x i32]* %2, i64 0, i64 2
  %11 = icmp slt i32 %6, 1
  br i1 %11, label %44, label %12

12:                                               ; preds = %0, %40
  %13 = phi i32 [ %41, %40 ], [ 0, %0 ]
  %14 = phi i32 [ %42, %40 ], [ 1, %0 ]
  %15 = urem i32 %14, 7
  store i32 %15, i32* %7, align 4, !tbaa !5
  br label %16

16:                                               ; preds = %12, %16
  %17 = phi i64 [ 0, %12 ], [ %22, %16 ]
  %18 = phi i32 [ %14, %12 ], [ %21, %16 ]
  %19 = srem i32 %18, 10
  %20 = getelementptr inbounds [4 x i32], [4 x i32]* %2, i64 0, i64 %17
  store i32 %19, i32* %20, align 4, !tbaa !5
  %21 = sdiv i32 %18, 10
  %22 = add nuw i64 %17, 1
  %23 = add i32 %18, 9
  %24 = icmp ult i32 %23, 19
  br i1 %24, label %25, label %16, !llvm.loop !9

25:                                               ; preds = %16
  %26 = load i32, i32* %8, align 16, !tbaa !5
  %27 = icmp eq i32 %26, 7
  %28 = load i32, i32* %9, align 4
  %29 = icmp eq i32 %28, 7
  %30 = select i1 %27, i1 true, i1 %29
  br i1 %30, label %40, label %31

31:                                               ; preds = %25
  %32 = load i32, i32* %10, align 8, !tbaa !5
  %33 = icmp eq i32 %32, 7
  %34 = load i32, i32* %7, align 4
  %35 = icmp eq i32 %34, 0
  %36 = select i1 %33, i1 true, i1 %35
  br i1 %36, label %40, label %37

37:                                               ; preds = %31
  %38 = mul nsw i32 %14, %14
  %39 = add nsw i32 %13, %38
  br label %40

40:                                               ; preds = %25, %31, %37
  %41 = phi i32 [ %39, %37 ], [ %13, %31 ], [ %13, %25 ]
  %42 = add nuw i32 %14, 1
  %43 = icmp eq i32 %14, %6
  br i1 %43, label %44, label %12, !llvm.loop !11

44:                                               ; preds = %40, %0
  %45 = phi i32 [ 0, %0 ], [ %41, %40 ]
  %46 = call nonnull align 8 dereferenceable(8) %"class.std::basic_ostream"* @_ZNSolsEi(%"class.std::basic_ostream"* nonnull align 8 dereferenceable(8) @_ZSt4cout, i32 %45)
  %47 = bitcast %"class.std::basic_ostream"* %46 to i8**
  %48 = load i8*, i8** %47, align 8, !tbaa !12
  %49 = getelementptr i8, i8* %48, i64 -24
  %50 = bitcast i8* %49 to i64*
  %51 = load i64, i64* %50, align 8
  %52 = bitcast %"class.std::basic_ostream"* %46 to i8*
  %53 = add nsw i64 %51, 240
  %54 = getelementptr inbounds i8, i8* %52, i64 %53
  %55 = bitcast i8* %54 to %"class.std::ctype"**
  %56 = load %"class.std::ctype"*, %"class.std::ctype"** %55, align 8, !tbaa !14
  %57 = icmp eq %"class.std::ctype"* %56, null
  br i1 %57, label %58, label %59

58:                                               ; preds = %44
  call void @_ZSt16__throw_bad_castv() #9
  unreachable

59:                                               ; preds = %44
  %60 = getelementptr inbounds %"class.std::ctype", %"class.std::ctype"* %56, i64 0, i32 8
  %61 = load i8, i8* %60, align 8, !tbaa !18
  %62 = icmp eq i8 %61, 0
  br i1 %62, label %66, label %63

63:                                               ; preds = %59
  %64 = getelementptr inbounds %"class.std::ctype", %"class.std::ctype"* %56, i64 0, i32 9, i64 10
  %65 = load i8, i8* %64, align 1, !tbaa !20
  br label %72

66:                                               ; preds = %59
  call void @_ZNKSt5ctypeIcE13_M_widen_initEv(%"class.std::ctype"* nonnull align 8 dereferenceable(570) %56)
  %67 = bitcast %"class.std::ctype"* %56 to i8 (%"class.std::ctype"*, i8)***
  %68 = load i8 (%"class.std::ctype"*, i8)**, i8 (%"class.std::ctype"*, i8)*** %67, align 8, !tbaa !12
  %69 = getelementptr inbounds i8 (%"class.std::ctype"*, i8)*, i8 (%"class.std::ctype"*, i8)** %68, i64 6
  %70 = load i8 (%"class.std::ctype"*, i8)*, i8 (%"class.std::ctype"*, i8)** %69, align 8
  %71 = call signext i8 %70(%"class.std::ctype"* nonnull align 8 dereferenceable(570) %56, i8 signext 10)
  br label %72

72:                                               ; preds = %63, %66
  %73 = phi i8 [ %65, %63 ], [ %71, %66 ]
  %74 = call nonnull align 8 dereferenceable(8) %"class.std::basic_ostream"* @_ZNSo3putEc(%"class.std::basic_ostream"* nonnull align 8 dereferenceable(8) %46, i8 signext %73)
  %75 = call nonnull align 8 dereferenceable(8) %"class.std::basic_ostream"* @_ZNSo5flushEv(%"class.std::basic_ostream"* nonnull align 8 dereferenceable(8) %74)
  call void @llvm.lifetime.end.p0i8(i64 16, i8* nonnull %4) #8
  call void @llvm.lifetime.end.p0i8(i64 4, i8* nonnull %3) #8
  ret i32 0
}

; Function Attrs: argmemonly mustprogress nofree nosync nounwind willreturn
declare void @llvm.lifetime.start.p0i8(i64 immarg, i8* nocapture) #4

; Function Attrs: argmemonly mustprogress nofree nounwind willreturn writeonly
declare void @llvm.memset.p0i8.i64(i8* nocapture writeonly, i8, i64, i1 immarg) #5

declare nonnull align 8 dereferenceable(16) %"class.std::basic_istream"* @_ZNSirsERi(%"class.std::basic_istream"* nonnull align 8 dereferenceable(16), i32* nonnull align 4 dereferenceable(4)) local_unnamed_addr #0

declare nonnull align 8 dereferenceable(8) %"class.std::basic_ostream"* @_ZNSolsEi(%"class.std::basic_ostream"* nonnull align 8 dereferenceable(8), i32) local_unnamed_addr #0

; Function Attrs: argmemonly mustprogress nofree nosync nounwind willreturn
declare void @llvm.lifetime.end.p0i8(i64 immarg, i8* nocapture) #4

declare nonnull align 8 dereferenceable(8) %"class.std::basic_ostream"* @_ZNSo3putEc(%"class.std::basic_ostream"* nonnull align 8 dereferenceable(8), i8 signext) local_unnamed_addr #0

declare nonnull align 8 dereferenceable(8) %"class.std::basic_ostream"* @_ZNSo5flushEv(%"class.std::basic_ostream"* nonnull align 8 dereferenceable(8)) local_unnamed_addr #0

; Function Attrs: noreturn
declare void @_ZSt16__throw_bad_castv() local_unnamed_addr #6

declare void @_ZNKSt5ctypeIcE13_M_widen_initEv(%"class.std::ctype"* nonnull align 8 dereferenceable(570)) local_unnamed_addr #0

; Function Attrs: sspstrong uwtable
define internal void @_GLOBAL__sub_I_1706.cpp() #7 section ".text.startup" {
  tail call void @_ZNSt8ios_base4InitC1Ev(%"class.std::ios_base::Init"* nonnull align 1 dereferenceable(1) @_ZStL8__ioinit)
  %1 = tail call i32 @__cxa_atexit(void (i8*)* bitcast (void (%"class.std::ios_base::Init"*)* @_ZNSt8ios_base4InitD1Ev to void (i8*)*), i8* getelementptr inbounds (%"class.std::ios_base::Init", %"class.std::ios_base::Init"* @_ZStL8__ioinit, i64 0, i32 0), i8* nonnull @__dso_handle) #8
  ret void
}


!llvm.module.flags = !{!0, !1, !2, !3}
!llvm.ident = !{!4}

!0 = !{i32 1, !"wchar_size", i32 4}
!1 = !{i32 7, !"PIC Level", i32 2}
!2 = !{i32 7, !"PIE Level", i32 2}
!3 = !{i32 7, !"uwtable", i32 1}
!4 = !{!"clang version 13.0.0"}
!5 = !{!6, !6, i64 0}
!6 = !{!"int", !7, i64 0}
!7 = !{!"omnipotent char", !8, i64 0}
!8 = !{!"Simple C++ TBAA"}
!9 = distinct !{!9, !10}
!10 = !{!"llvm.loop.mustprogress"}
!11 = distinct !{!11, !10}
!12 = !{!13, !13, i64 0}
!13 = !{!"vtable pointer", !8, i64 0}
!14 = !{!15, !16, i64 240}
!15 = !{!"_ZTSSt9basic_iosIcSt11char_traitsIcEE", !16, i64 216, !7, i64 224, !17, i64 225, !16, i64 232, !16, i64 240, !16, i64 248, !16, i64 256}
!16 = !{!"any pointer", !7, i64 0}
!17 = !{!"bool", !7, i64 0}
!18 = !{!19, !7, i64 56}
!19 = !{!"_ZTSSt5ctypeIcE", !16, i64 16, !17, i64 24, !16, i64 32, !16, i64 40, !16, i64 48, !7, i64 56, !7, i64 57, !7, i64 313, !7, i64 569}
!20 = !{!7, !7, i64 0}
